; Function Attrs: nounwind uwtable
define range(i32 0, 2) i32 @Abc_AigNodeHasComplFanoutEdgeTrav(ptr noundef readonly captures(none) %0) local_unnamed_addr #0 {
  %2 = getelementptr i8, ptr %0, i64 44
  %.val18 = load i32, ptr %2, align 4
  %3 = icmp sgt i32 %.val18, 0
  br i1 %3, label %.lr.ph, label %.critedge

.lr.ph:                                           ; preds = %1
  %4 = getelementptr i8, ptr %0, i64 48
  %5 = getelementptr inbounds nuw i8, ptr %0, i64 16
  br label %6

6:                                                ; preds = %.lr.ph, %74
  %indvars.iv = phi i64 [ 0, %.lr.ph ], [ %indvars.iv.next, %74 ]
  %.val12 = load ptr, ptr %0, align 8
  %.val13 = load ptr, ptr %4, align 8
  %7 = getelementptr i8, ptr %.val12, i64 32
  %.val12.val = load ptr, ptr %7, align 8
  %8 = getelementptr i8, ptr %.val12.val, i64 8
  %.val12.val.val = load ptr, ptr %8, align 8
  %9 = getelementptr inbounds nuw i32, ptr %.val13, i64 %indvars.iv
  %10 = load i32, ptr %9, align 4
  %11 = sext i32 %10 to i64
  %12 = getelementptr inbounds ptr, ptr %.val12.val.val, i64 %11
  %13 = load ptr, ptr %12, align 8
  %.val2.i = load ptr, ptr %13, align 8
  %14 = getelementptr i8, ptr %13, i64 16
  %.val3.i = load i32, ptr %14, align 8
  %15 = getelementptr inbounds nuw i8, ptr %.val2.i, i64 224
  %16 = add nsw i32 %.val3.i, 1
  %17 = getelementptr inbounds nuw i8, ptr %.val2.i, i64 228
  %18 = load i32, ptr %17, align 4
  %.not.i.not.i.i.i = icmp slt i32 %.val3.i, %18
  br i1 %.not.i.not.i.i.i, label %Abc_NodeIsTravIdCurrent.exit, label %19

19:                                               ; preds = %6
  %20 = load i32, ptr %15, align 8
  %21 = shl nsw i32 %20, 1
  %.not.i.i.i = icmp slt i32 %.val3.i, %21
  %.not.i.i.not.i.i.i = icmp sgt i32 %20, %.val3.i
  br i1 %.not.i.i.i, label %34, label %22

22:                                               ; preds = %19
  br i1 %.not.i.i.not.i.i.i, label %Vec_IntGrow.exit.i.i.i.i, label %23

23:                                               ; preds = %22
  %24 = getelementptr inbounds nuw i8, ptr %.val2.i, i64 232
  %25 = load ptr, ptr %24, align 8
  %.not9.i.i.i.i.i = icmp eq ptr %25, null
  %26 = sext i32 %16 to i64
  %27 = shl nsw i64 %26, 2
  br i1 %.not9.i.i.i.i.i, label %30, label %28

28:                                               ; preds = %23
  %29 = tail call ptr @realloc(ptr noundef nonnull %25, i64 noundef %27) #22
  br label %32

30:                                               ; preds = %23
  %31 = tail call noalias ptr @malloc(i64 noundef %27) #20
  br label %32

32:                                               ; preds = %30, %28
  %33 = phi ptr [ %29, %28 ], [ %31, %30 ]
  store ptr %33, ptr %24, align 8
  br label %Vec_IntGrow.exit.sink.split.i.i.i.i

34:                                               ; preds = %19
  br i1 %.not.i.i.not.i.i.i, label %Vec_IntGrow.exit.i.i.i.i, label %35

35:                                               ; preds = %34
  %36 = getelementptr inbounds nuw i8, ptr %.val2.i, i64 232
  %37 = load ptr, ptr %36, align 8
  %.not9.i21.i.i.i.i = icmp eq ptr %37, null
  %38 = sext i32 %21 to i64
  %39 = shl nsw i64 %38, 2
  br i1 %.not9.i21.i.i.i.i, label %42, label %40

40:                                               ; preds = %35
  %41 = tail call ptr @realloc(ptr noundef nonnull %37, i64 noundef %39) #22
  br label %44

42:                                               ; preds = %35
  %43 = tail call noalias ptr @malloc(i64 noundef %39) #20
  br label %44

44:                                               ; preds = %42, %40
  %45 = phi ptr [ %41, %40 ], [ %43, %42 ]
  store ptr %45, ptr %36, align 8
  br label %Vec_IntGrow.exit.sink.split.i.i.i.i

Vec_IntGrow.exit.sink.split.i.i.i.i:              ; preds = %44, %32
  %.sink.i.i.i.i = phi i32 [ %21, %44 ], [ %16, %32 ]
  store i32 %.sink.i.i.i.i, ptr %15, align 8
  %.pre.i.i.i = load i32, ptr %17, align 4
  br label %Vec_IntGrow.exit.i.i.i.i

Vec_IntGrow.exit.i.i.i.i:                         ; preds = %Vec_IntGrow.exit.sink.split.i.i.i.i, %34, %22
  %46 = phi i32 [ %.pre.i.i.i, %Vec_IntGrow.exit.sink.split.i.i.i.i ], [ %18, %34 ], [ %18, %22 ]
  %.not3.i.i.i = icmp sgt i32 %46, %.val3.i
  br i1 %.not3.i.i.i, label %._crit_edge.i.i.i.i, label %.lr.ph.i.i.i.i

.lr.ph.i.i.i.i:                                   ; preds = %Vec_IntGrow.exit.i.i.i.i
  %47 = getelementptr inbounds nuw i8, ptr %.val2.i, i64 232
  %48 = sext i32 %46 to i64
  %wide.trip.count.i.i.i.i = sext i32 %16 to i64
  br label %49

49:                                               ; preds = %49, %.lr.ph.i.i.i.i
  %indvars.iv.i.i.i.i = phi i64 [ %48, %.lr.ph.i.i.i.i ], [ %indvars.iv.next.i.i.i.i, %49 ]
  %50 = load ptr, ptr %47, align 8
  %51 = getelementptr inbounds i32, ptr %50, i64 %indvars.iv.i.i.i.i
  store i32 0, ptr %51, align 4
  %indvars.iv.next.i.i.i.i = add nsw i64 %indvars.iv.i.i.i.i, 1
  %exitcond.not.i.i.i.i = icmp eq i64 %indvars.iv.next.i.i.i.i, %wide.trip.count.i.i.i.i
  br i1 %exitcond.not.i.i.i.i, label %._crit_edge.i.i.i.i, label %49, !llvm.loop !45

._crit_edge.i.i.i.i:                              ; preds = %49, %Vec_IntGrow.exit.i.i.i.i
  store i32 %16, ptr %17, align 4
  %.val.pre.i = load ptr, ptr %13, align 8
  br label %Abc_NodeIsTravIdCurrent.exit

Abc_NodeIsTravIdCurrent.exit:                     ; preds = %6, %._crit_edge.i.i.i.i
  %.val.i = phi ptr [ %.val2.i, %6 ], [ %.val.pre.i, %._crit_edge.i.i.i.i ]
  %52 = getelementptr i8, ptr %.val2.i, i64 232
  %.val.i.i.i = load ptr, ptr %52, align 8
  %53 = sext i32 %.val3.i to i64
  %54 = getelementptr inbounds i32, ptr %.val.i.i.i, i64 %53
  %55 = load i32, ptr %54, align 4
  %56 = getelementptr inbounds nuw i8, ptr %.val.i, i64 216
  %57 = load i32, ptr %56, align 8
  %.not = icmp eq i32 %55, %57
  br i1 %.not, label %58, label %74

58:                                               ; preds = %Abc_NodeIsTravIdCurrent.exit
  %59 = load i32, ptr %5, align 8
  %60 = getelementptr inbounds nuw i8, ptr %13, i64 28
  %61 = load i32, ptr %60, align 4
  %62 = icmp sgt i32 %61, 0
  br i1 %62, label %.lr.ph.i, label %Vec_IntFind.exit.thread

.lr.ph.i:                                         ; preds = %58
  %63 = getelementptr inbounds nuw i8, ptr %13, i64 32
  %64 = load ptr, ptr %63, align 8
  %wide.trip.count.i = zext nneg i32 %61 to i64
  br label %65

65:                                               ; preds = %69, %.lr.ph.i
  %indvars.iv.i = phi i64 [ 0, %.lr.ph.i ], [ %indvars.iv.next.i, %69 ]
  %66 = getelementptr inbounds nuw i32, ptr %64, i64 %indvars.iv.i
  %67 = load i32, ptr %66, align 4
  %68 = icmp eq i32 %67, %59
  br i1 %68, label %Vec_IntFind.exit, label %69

69:                                               ; preds = %65
  %indvars.iv.next.i = add nuw nsw i64 %indvars.iv.i, 1
  %exitcond.not.i = icmp eq i64 %indvars.iv.next.i, %wide.trip.count.i
  br i1 %exitcond.not.i, label %Vec_IntFind.exit.thread, label %65, !llvm.loop !31

Vec_IntFind.exit:                                 ; preds = %65
  %.not.i = icmp eq i64 %indvars.iv.i, 0
  %spec.select = select i1 %.not.i, i32 10, i32 11
  br label %Vec_IntFind.exit.thread

Vec_IntFind.exit.thread:                          ; preds = %69, %58, %Vec_IntFind.exit
  %70 = phi i32 [ %spec.select, %Vec_IntFind.exit ], [ 11, %58 ], [ 11, %69 ]
  %.in = getelementptr inbounds nuw i8, ptr %13, i64 20
  %71 = load i32, ptr %.in, align 4
  %72 = shl nuw nsw i32 1, %70
  %73 = and i32 %71, %72
  %.not11 = icmp eq i32 %73, 0
  br i1 %.not11, label %74, label %.critedge

74:                                               ; preds = %Vec_IntFind.exit.thread, %Abc_NodeIsTravIdCurrent.exit
  %indvars.iv.next = add nuw nsw i64 %indvars.iv, 1
  %.val = load i32, ptr %2, align 4
  %75 = sext i32 %.val to i64
  %76 = icmp slt i64 %indvars.iv.next, %75
  br i1 %76, label %6, label %.critedge, !llvm.loop !46

.critedge:                                        ; preds = %Vec_IntFind.exit.thread, %74, %1
  %.0 = phi i32 [ 0, %1 ], [ 0, %74 ], [ 1, %Vec_IntFind.exit.thread ]
  ret i32 %.0
}